target datalayout = "e-m:e-p270:32:32-p271:32:32-p272:64:64-i64:64-i128:128-f80:128-n8:16:32:64-S128"
target triple = "x86_64-pc-linux-gnu"

%struct.aeron_msg_t_stct = type { ptr, ptr, ptr, i32, i32, i32, i32, i32, i32, i32, i32, i32, i32, i8 }
%struct.aeron_term_t_stct = type { ptr, ptr, ptr, ptr, ptr, ptr, i32 }
%struct.aeron_msg_fragment_t_stct = type { ptr, i32, i32, i32, i32, i32, i8 }

; Function Attrs: null_pointer_is_valid sspstrong uwtable
define internal zeroext i1 @aeron_msg_process_orphan_fragments_msg_cb(ptr noundef %0, ptr noundef %1, ptr noundef %2) #0 {
  %4 = alloca i1, align 1
  %5 = alloca ptr, align 8
  %6 = alloca ptr, align 8
  %7 = alloca ptr, align 8
  %8 = alloca ptr, align 8
  %9 = alloca ptr, align 8
  %10 = alloca i8, align 1
  %11 = alloca ptr, align 8
  %12 = alloca ptr, align 8
  %13 = alloca i32, align 4
  store ptr %0, ptr %5, align 8
  store ptr %1, ptr %6, align 8
  store ptr %2, ptr %7, align 8
  call void @llvm.lifetime.start.p0(i64 8, ptr %8) #15
  %14 = load ptr, ptr %6, align 8
  store ptr %14, ptr %8, align 8
  call void @llvm.lifetime.start.p0(i64 8, ptr %9) #15
  %15 = load ptr, ptr %7, align 8
  store ptr %15, ptr %9, align 8
  call void @llvm.lifetime.start.p0(i64 1, ptr %10) #15
  store i8 0, ptr %10, align 1
  call void @llvm.lifetime.start.p0(i64 8, ptr %11) #15
  store ptr null, ptr %11, align 8
  call void @llvm.lifetime.start.p0(i64 8, ptr %12) #15
  store ptr null, ptr %12, align 8
  %16 = load ptr, ptr %8, align 8
  %17 = getelementptr inbounds nuw %struct.aeron_msg_t_stct, ptr %16, i32 0, i32 13
  %18 = load i8, ptr %17, align 8, !range !6, !noundef !7
  %19 = trunc i8 %18 to i1
  br i1 %19, label %20, label %21

20:                                               ; preds = %3
  store i1 false, ptr %4, align 1
  store i32 1, ptr %13, align 4
  br label %61

21:                                               ; preds = %3
  br label %22

22:                                               ; preds = %59, %21
  br label %23

23:                                               ; preds = %22
  %24 = load ptr, ptr %9, align 8
  %25 = getelementptr inbounds nuw %struct.aeron_term_t_stct, ptr %24, i32 0, i32 3
  %26 = load ptr, ptr %25, align 8
  %27 = call ptr @wmem_list_head(ptr noundef %26)
  store ptr %27, ptr %11, align 8
  br label %28

28:                                               ; preds = %52, %23
  %29 = load ptr, ptr %11, align 8
  %30 = icmp ne ptr %29, null
  br i1 %30, label %31, label %55

31:                                               ; preds = %28
  %32 = load ptr, ptr %11, align 8
  %33 = call ptr @wmem_list_frame_data(ptr noundef %32)
  store ptr %33, ptr %12, align 8
  %34 = load ptr, ptr %12, align 8
  %35 = icmp ne ptr %34, null
  br i1 %35, label %36, label %52

36:                                               ; preds = %31
  %37 = load ptr, ptr %8, align 8
  %38 = getelementptr inbounds nuw %struct.aeron_msg_t_stct, ptr %37, i32 0, i32 4
  %39 = load i32, ptr %38, align 4
  %40 = load ptr, ptr %12, align 8
  %41 = getelementptr inbounds nuw %struct.aeron_msg_fragment_t_stct, ptr %40, i32 0, i32 1
  %42 = load i32, ptr %41, align 8
  %43 = icmp eq i32 %39, %42
  br i1 %43, label %44, label %51

44:                                               ; preds = %36
  %45 = load ptr, ptr %9, align 8
  %46 = getelementptr inbounds nuw %struct.aeron_term_t_stct, ptr %45, i32 0, i32 3
  %47 = load ptr, ptr %46, align 8
  %48 = load ptr, ptr %11, align 8
  call void @wmem_list_remove_frame(ptr noundef %47, ptr noundef %48)
  %49 = load ptr, ptr %8, align 8
  %50 = load ptr, ptr %12, align 8
  call void @aeron_msg_fragment_add(ptr noundef %49, ptr noundef %50)
  store i8 1, ptr %10, align 1
  br label %55

51:                                               ; preds = %36
  br label %52

52:                                               ; preds = %51, %31
  %53 = load ptr, ptr %11, align 8
  %54 = call ptr @wmem_list_frame_next(ptr noundef %53)
  store ptr %54, ptr %11, align 8
  br label %28, !llvm.loop !19

55:                                               ; preds = %44, %28
  %56 = load i8, ptr %10, align 1, !range !6, !noundef !7
  %57 = trunc i8 %56 to i1
  br i1 %57, label %59, label %58

58:                                               ; preds = %55
  br label %60

59:                                               ; preds = %55
  store i8 0, ptr %10, align 1
  br label %22

60:                                               ; preds = %58
  store i1 false, ptr %4, align 1
  store i32 1, ptr %13, align 4
  br label %61

61:                                               ; preds = %60, %20
  call void @llvm.lifetime.end.p0(i64 8, ptr %12) #15
  call void @llvm.lifetime.end.p0(i64 8, ptr %11) #15
  call void @llvm.lifetime.end.p0(i64 1, ptr %10) #15
  call void @llvm.lifetime.end.p0(i64 8, ptr %9) #15
  call void @llvm.lifetime.end.p0(i64 8, ptr %8) #15
  %62 = load i1, ptr %4, align 1
  ret i1 %62
}