; Function Attrs: null_pointer_is_valid sspstrong uwtable
define internal noundef zeroext i1 @aeron_msg_process_orphan_fragments_msg_cb(ptr readnone captures(none) %0, ptr noundef %1, ptr noundef readonly captures(none) %2) #0 {
  %4 = getelementptr inbounds nuw i8, ptr %1, i64 64
  %5 = load i8, ptr %4, align 8, !range !6, !noundef !7
  %6 = trunc nuw i8 %5 to i1
  br i1 %6, label %.critedge, label %.preheader

.preheader:                                       ; preds = %3
  %7 = getelementptr inbounds nuw i8, ptr %2, i64 24
  %8 = load ptr, ptr %7, align 8
  %9 = tail call ptr @wmem_list_head(ptr noundef %8)
  %.not.not2023 = icmp eq ptr %9, null
  br i1 %.not.not2023, label %.critedge, label %.lr.ph.lr.ph

.lr.ph.lr.ph:                                     ; preds = %.preheader
  %10 = getelementptr inbounds nuw i8, ptr %1, i64 28
  br label %.lr.ph

.lr.ph:                                           ; preds = %.lr.ph.backedge, %.lr.ph.lr.ph
  %.021 = phi ptr [ %9, %.lr.ph.lr.ph ], [ %.021.be, %.lr.ph.backedge ]
  %11 = tail call ptr @wmem_list_frame_data(ptr noundef nonnull %.021)
  %.not18 = icmp eq ptr %11, null
  br i1 %.not18, label %21, label %12

12:                                               ; preds = %.lr.ph
  %13 = load i32, ptr %10, align 4
  %14 = getelementptr inbounds nuw i8, ptr %11, i64 8
  %15 = load i32, ptr %14, align 8
  %16 = icmp eq i32 %13, %15
  br i1 %16, label %17, label %21

17:                                               ; preds = %12
  %18 = load ptr, ptr %7, align 8
  tail call void @wmem_list_remove_frame(ptr noundef %18, ptr noundef nonnull %.021)
  tail call fastcc void @aeron_msg_fragment_add(ptr noundef %1, ptr noundef nonnull %11)
  %19 = load ptr, ptr %7, align 8
  %20 = tail call ptr @wmem_list_head(ptr noundef %19)
  %.not.not20 = icmp eq ptr %20, null
  br i1 %.not.not20, label %.critedge, label %.lr.ph.backedge

21:                                               ; preds = %12, %.lr.ph
  %22 = tail call ptr @wmem_list_frame_next(ptr noundef nonnull %.021)
  %.not.not = icmp eq ptr %22, null
  br i1 %.not.not, label %.critedge, label %.lr.ph.backedge

.lr.ph.backedge:                                  ; preds = %21, %17
  %.021.be = phi ptr [ %22, %21 ], [ %20, %17 ]
  br label %.lr.ph, !llvm.loop !21

.critedge:                                        ; preds = %17, %21, %.preheader, %3
  ret i1 false
}